Certificate:
    Data:
        Version: 3 (0x2)
        Serial Number: 1 (0x1)
    Signature Algorithm: sha1WithRSAEncryption
        Issuer: C=US, ST=Unset, L=Unset, O=Unset, CN=www.example.com
        Validity
            Not Before: Feb 25 15:57:45 2014 GMT
            Not After : Feb 23 15:57:45 2024 GMT
        Subject: C=US, ST=Unset, O=Unset, CN=www.example.com
        Subject Public Key Info:
            Public Key Algorithm: rsaEncryption
                Public-Key: (2048 bit)
                Modulus:
                    00:d1:31:d7:39:67:77:a5:74:1f:e1:34:aa:87:84:
                    a0:94:38:45:5a:f8:93:12:21:97:08:bc:8d:50:29:
                    93:bf:b5:d1:ee:e2:8d:a9:e9:18:81:96:f0:aa:3b:
                    9d:18:dc:e5:20:57:61:59:83:63:ec:b5:48:eb:80:
                    d8:ee:b2:ff:f0:13:8c:73:f6:c9:b8:d2:8b:86:92:
                    d6:e5:9e:08:f1:e2:83:67:f6:3d:a2:fa:c0:94:5f:
                    45:a1:de:19:91:a8:d6:75:7c:05:70:2f:71:20:78:
                    08:52:3a:4d:3e:d1:25:85:16:85:cf:f1:ff:70:18:
                    28:14:1a:b7:c3:7d:aa:6f:5e:43:54:38:9f:31:a0:
                    57:f8:03:f9:2f:1b:3b:bf:98:b5:1a:08:1e:80:16:
                    a0:54:94:91:6b:d3:6e:d2:16:40:4a:e6:13:64:80:
                    84:bd:d7:e5:e0:22:08:10:bf:ba:96:a9:48:85:0a:
                    fe:6c:e7:55:70:fb:e6:33:78:af:b5:70:4d:99:f9:
                    36:ec:cb:eb:0a:b1:ac:70:62:4a:19:fc:51:0d:26:
                    16:41:e0:97:2a:ef:1b:64:9a:3a:b6:b8:cf:f4:36:
                    a4:73:ff:db:f6:6b:e4:f7:a7:dd:0f:cb:fa:fe:55:
                    36:5f:ed:ca:d1:1a:45:19:2b:38:3a:16:e8:24:a3:
                    0d:3f
                Exponent: 65537 (0x10001)
        X509v3 extensions:
            X509v3 Basic Constraints: 
                CA:FALSE
            X509v3 Subject Key Identifier: 
                ED:8D:1E:F1:90:A4:AC:97:5C:9F:0F:AA:1D:0E:2A:D9:48:AE:0B:FC
            X509v3 Authority Key Identifier: 
                keyid:B3:92:CE:59:66:14:B8:79:9E:6E:F1:42:CE:C9:9C:F6:B1:4E:DD:0D

    Signature Algorithm: sha1WithRSAEncryption
         5a:2b:2a:05:46:9e:2b:22:a3:f2:64:b5:a3:72:d4:a0:90:1c:
         ed:3b:b5:26:89:03:74:34:4b:96:43:f1:79:90:88:26:69:9a:
         da:ba:12:19:33:84:2b:84:89:f4:7b:cd:54:fb:a9:b9:8d:98:
         d9:c2:16:e3:ba:31:12:5a:58:2f:56:77:68:a9:84:22:d3:d8:
         30:7f:11:be:2e:fd:ac:5e:01:40:55:42:cc:a3:13:92:27:9e:
         90:d3:aa:31:d0:cc:8c:bb:3c:a7:ef:b4:95:13:20:f0:2a:2d:
         57:5a:31:b6:44:17:0b:c7:8f:98:33:03:0e:3b:55:33:76:f0:
         c6:16:e1:85:59:2d:b1:fa:a3:19:89:e5:b4:40:b3:6e:17:a2:
         ad:9a:57:54:03:85:86:74:2e:4d:71:2c:9a:d9:30:b9:51:bf:
         b7:62:ed:1b:2f:6f:ce:6b:14:2d:5b:4b:7c:7e:d8:21:ca:e2:
         59:b1:08:97:1d:a1:8b:a0:22:43:e3:ea:2c:7f:5e:2f:74:69:
         17:65:8c:64:82:c1:2d:d0:d2:7e:3c:24:cb:e0:b1:31:ad:b5:
         88:21:83:d0:53:ab:94:d3:4e:90:ca:3f:f0:3e:db:bc:09:c2:
         3d:af:37:a6:05:de:aa:fb:45:7f:fe:37:ff:1a:cc:e9:ce:a2:
         d2:75:73:50
-----BEGIN CERTIFICATE-----
MIIDZjCCAk6gAwIBAgIBATANBgkqhkiG9w0BAQUFADBXMQswCQYDVQQGEwJVUzEO
MAwGA1UECAwFVW5zZXQxDjAMBgNVBAcMBVVuc2V0MQ4wDAYDVQQKDAVVbnNldDEY
MBYGA1UEAwwPd3d3LmV4YW1wbGUuY29tMB4XDTE0MDIyNTE1NTc0NVoXDTI0MDIy
MzE1NTc0NVowRzELMAkGA1UEBhMCVVMxDjAMBgNVBAgMBVVuc2V0MQ4wDAYDVQQK
DAVVbnNldDEYMBYGA1UEAwwPd3d3LmV4YW1wbGUuY29tMIIBIjANBgkqhkiG9w0B
AQEFAAOCAQ8AMIIBCgKCAQEA0THXOWd3pXQf4TSqh4SglDhFWviTEiGXCLyNUCmT
v7XR7uKNqekYgZbwqjudGNzlIFdhWYNj7LVI64DY7rL/8BOMc/bJuNKLhpLW5Z4I
8eKDZ/Y9ovrAlF9Fod4ZkajWdXwFcC9xIHgIUjpNPtElhRaFz/H/cBgoFBq3w32q
b15DVDifMaBX+AP5Lxs7v5i1GggegBagVJSRa9Nu0hZASuYTZICEvdfl4CIIEL+6
lqlIhQr+bOdVcPvmM3ivtXBNmfk27MvrCrGscGJKGfxRDSYWQeCXKu8bZJo6trjP
9Dakc//b9mvk96fdD8v6/lU2X+3K0RpFGSs4OhboJKMNPwIDAQABo00wSzAJBgNV
HRMEAjAAMB0GA1UdDgQWBBTtjR7xkKSsl1yfD6odDirZSK4L/DAfBgNVHSMEGDAW
gBSzks5ZZhS4eZ5u8ULOyZz2sU7dDTANBgkqhkiG9w0BAQUFAAOCAQEAWisqBUae
KyKj8mS1o3LUoJAc7Tu1JokDdDRLlkPxeZCIJmma2roSGTOEK4SJ9HvNVPupuY2Y
2cIW47oxElpYL1Z3aKmEItPYMH8Rvi79rF4BQFVCzKMTkieekNOqMdDMjLs8p++0
lRMg8CotV1oxtkQXC8ePmDMDDjtVM3bwxhbhhVktsfqjGYnltECzbheirZpXVAOF
hnQuTXEsmtkwuVG/t2LtGy9vzmsULVtLfH7YIcriWbEIlx2hi6AiQ+PqLH9eL3Rp
F2WMZILBLdDSfjwky+CxMa21iCGD0FOrlNNOkMo/8D7bvAnCPa83pgXeqvtFf/43
/xrM6c6i0nVzUA==
-----END CERTIFICATE-----
